target datalayout = "e-m:e-p270:32:32-p271:32:32-p272:64:64-i64:64-i128:128-f80:128-n8:16:32:64-S128"
target triple = "x86_64-pc-linux-gnu"

%"class.icu_77::Hashtable" = type { ptr, %struct.UHashtable }
%struct.UHashtable = type { ptr, ptr, ptr, ptr, ptr, ptr, i32, i32, i32, i32, float, float, i8, i8 }
%"class.icu_77::TransliterationRuleData" = type { [8 x i8], %"class.icu_77::TransliterationRuleSet", %"class.icu_77::Hashtable", ptr, i8, i16, i32 }
%"class.icu_77::TransliterationRuleSet" = type { ptr, ptr, ptr, [257 x i32], i32 }
%"class.icu_77::UVector" = type { %"class.icu_77::UObject", i32, i32, ptr, ptr, ptr }
%"class.icu_77::UObject" = type { ptr }
%"class.icu_77::UnicodeString" = type { %"class.icu_77::Replaceable", %"union.icu_77::UnicodeString::StackBufferOrFields" }
%"class.icu_77::Replaceable" = type { %"class.icu_77::UObject" }
%"union.icu_77::UnicodeString::StackBufferOrFields" = type { %struct.anon.0, [32 x i8] }
%struct.anon.0 = type { i16, i32, i32, ptr }
%"class.icu_77::TransliteratorParser" = type <{ [8 x i8], %"class.icu_77::UVector", %"class.icu_77::UVector", ptr, ptr, i32, %struct.UParseError, [4 x i8], ptr, %"class.icu_77::UVector", %"class.icu_77::Hashtable", %"class.icu_77::UnicodeString", %"class.icu_77::UVector", i16, i16, [4 x i8], %"class.icu_77::UnicodeString", i16, [6 x i8] }>
%struct.UParseError = type { i32, i32, [16 x i16], [16 x i16] }

; Function Attrs: inlinehint mustprogress nounwind uwtable
define internal noundef signext i8 @_ZL9U_FAILURE10UErrorCode(i32 noundef %0) #2 {
  %2 = alloca i32, align 4
  store i32 %0, ptr %2, align 4, !tbaa !15
  %3 = load i32, ptr %2, align 4, !tbaa !15
  %4 = icmp sgt i32 %3, 0
  %5 = zext i1 %4 to i8
  ret i8 %5
}

; Function Attrs: inlinehint mustprogress nounwind uwtable
define linkonce_odr noundef i32 @_ZNK6icu_777UVector4sizeEv(ptr noundef nonnull align 8 dereferenceable(40) %0) #2 comdat align 2 {
  %2 = alloca ptr, align 8
  store ptr %0, ptr %2, align 8, !tbaa !27
  %3 = load ptr, ptr %2, align 8
  %4 = getelementptr inbounds nuw %"class.icu_77::UVector", ptr %3, i32 0, i32 1
  %5 = load i32, ptr %4, align 8, !tbaa !57
  ret i32 %5
}

; Function Attrs: mustprogress uwtable
define noundef zeroext i16 @_ZN6icu_7720TransliteratorParser18generateStandInForEPNS_14UnicodeFunctorER10UErrorCode(ptr noundef nonnull align 8 dereferenceable(498) %0, ptr noundef %1, ptr noundef nonnull align 4 dereferenceable(4) %2) #1 align 2 {
  %4 = alloca i16, align 2
  %5 = alloca ptr, align 8
  %6 = alloca ptr, align 8
  %7 = alloca ptr, align 8
  %8 = alloca i32, align 4
  %9 = alloca i32, align 4
  store ptr %0, ptr %5, align 8, !tbaa !71
  store ptr %1, ptr %6, align 8, !tbaa !48
  store ptr %2, ptr %7, align 8, !tbaa !22
  %10 = load ptr, ptr %5, align 8
  call void @llvm.lifetime.start.p0(i64 4, ptr %8) #11
  store i32 0, ptr %8, align 4, !tbaa !14
  br label %11

11:                                               ; preds = %33, %3
  %12 = load i32, ptr %8, align 4, !tbaa !14
  %13 = getelementptr inbounds nuw %"class.icu_77::TransliteratorParser", ptr %10, i32 0, i32 9
  %14 = call noundef i32 @_ZNK6icu_777UVector4sizeEv(ptr noundef nonnull align 8 dereferenceable(40) %13)
  %15 = icmp slt i32 %12, %14
  br i1 %15, label %17, label %16

16:                                               ; preds = %11
  store i32 2, ptr %9, align 4
  br label %36

17:                                               ; preds = %11
  %18 = getelementptr inbounds nuw %"class.icu_77::TransliteratorParser", ptr %10, i32 0, i32 9
  %19 = load i32, ptr %8, align 4, !tbaa !14
  %20 = call noundef ptr @_ZNK6icu_777UVector9elementAtEi(ptr noundef nonnull align 8 dereferenceable(40) %18, i32 noundef %19)
  %21 = load ptr, ptr %6, align 8, !tbaa !48
  %22 = icmp eq ptr %20, %21
  br i1 %22, label %23, label %32

23:                                               ; preds = %17
  %24 = getelementptr inbounds nuw %"class.icu_77::TransliteratorParser", ptr %10, i32 0, i32 4
  %25 = load ptr, ptr %24, align 8, !tbaa !88
  %26 = getelementptr inbounds nuw %"class.icu_77::TransliterationRuleData", ptr %25, i32 0, i32 5
  %27 = load i16, ptr %26, align 2, !tbaa !50
  %28 = zext i16 %27 to i32
  %29 = load i32, ptr %8, align 4, !tbaa !14
  %30 = add nsw i32 %28, %29
  %31 = trunc i32 %30 to i16
  store i16 %31, ptr %4, align 2
  store i32 1, ptr %9, align 4
  br label %36

32:                                               ; preds = %17
  br label %33

33:                                               ; preds = %32
  %34 = load i32, ptr %8, align 4, !tbaa !14
  %35 = add nsw i32 %34, 1
  store i32 %35, ptr %8, align 4, !tbaa !14
  br label %11, !llvm.loop !114

36:                                               ; preds = %23, %16
  call void @llvm.lifetime.end.p0(i64 4, ptr %8) #11
  %37 = load i32, ptr %9, align 4
  switch i32 %37, label %77 [
    i32 2, label %38
    i32 1, label %75
  ]

38:                                               ; preds = %36
  %39 = getelementptr inbounds nuw %"class.icu_77::TransliteratorParser", ptr %10, i32 0, i32 13
  %40 = load i16, ptr %39, align 8, !tbaa !113
  %41 = zext i16 %40 to i32
  %42 = getelementptr inbounds nuw %"class.icu_77::TransliteratorParser", ptr %10, i32 0, i32 14
  %43 = load i16, ptr %42, align 2, !tbaa !111
  %44 = zext i16 %43 to i32
  %45 = icmp sge i32 %41, %44
  br i1 %45, label %46, label %55

46:                                               ; preds = %38
  %47 = load ptr, ptr %6, align 8, !tbaa !48
  %48 = icmp eq ptr %47, null
  br i1 %48, label %53, label %49

49:                                               ; preds = %46
  %50 = load ptr, ptr %47, align 8, !tbaa !31
  %51 = getelementptr inbounds ptr, ptr %50, i64 1
  %52 = load ptr, ptr %51, align 8
  call void %52(ptr noundef nonnull align 8 dereferenceable(8) %47) #11
  br label %53

53:                                               ; preds = %49, %46
  %54 = load ptr, ptr %7, align 8, !tbaa !22
  store i32 65565, ptr %54, align 4, !tbaa !15
  store i16 0, ptr %4, align 2
  br label %75

55:                                               ; preds = %38
  %56 = getelementptr inbounds nuw %"class.icu_77::TransliteratorParser", ptr %10, i32 0, i32 9
  %57 = load ptr, ptr %6, align 8, !tbaa !48
  %58 = load ptr, ptr %7, align 8, !tbaa !22
  call void @_ZN6icu_777UVector10addElementEPvR10UErrorCode(ptr noundef nonnull align 8 dereferenceable(40) %56, ptr noundef %57, ptr noundef nonnull align 4 dereferenceable(4) %58)
  %59 = load ptr, ptr %7, align 8, !tbaa !22
  %60 = load i32, ptr %59, align 4, !tbaa !15
  %61 = call noundef signext i8 @_ZL9U_FAILURE10UErrorCode(i32 noundef %60)
  %62 = icmp ne i8 %61, 0
  br i1 %62, label %63, label %71

63:                                               ; preds = %55
  %64 = load ptr, ptr %6, align 8, !tbaa !48
  %65 = icmp eq ptr %64, null
  br i1 %65, label %70, label %66

66:                                               ; preds = %63
  %67 = load ptr, ptr %64, align 8, !tbaa !31
  %68 = getelementptr inbounds ptr, ptr %67, i64 1
  %69 = load ptr, ptr %68, align 8
  call void %69(ptr noundef nonnull align 8 dereferenceable(8) %64) #11
  br label %70

70:                                               ; preds = %66, %63
  store i16 0, ptr %4, align 2
  br label %75

71:                                               ; preds = %55
  %72 = getelementptr inbounds nuw %"class.icu_77::TransliteratorParser", ptr %10, i32 0, i32 13
  %73 = load i16, ptr %72, align 8, !tbaa !113
  %74 = add i16 %73, 1
  store i16 %74, ptr %72, align 8, !tbaa !113
  store i16 %73, ptr %4, align 2
  br label %75

75:                                               ; preds = %71, %70, %53, %36
  %76 = load i16, ptr %4, align 2
  ret i16 %76

77:                                               ; preds = %36
  unreachable
}