; Function Attrs: mustprogress uwtable
define noundef zeroext i16 @_ZN6icu_7720TransliteratorParser18generateStandInForEPNS_14UnicodeFunctorER10UErrorCode(ptr noundef nonnull align 8 dereferenceable(498) %0, ptr noundef %1, ptr noundef nonnull align 4 dereferenceable(4) %2) local_unnamed_addr #1 align 2 {
  %4 = getelementptr inbounds nuw i8, ptr %0, i64 192
  %5 = getelementptr inbounds nuw i8, ptr %0, i64 200
  %6 = load i32, ptr %5, align 8, !tbaa !38
  %7 = icmp sgt i32 %6, 0
  br i1 %7, label %.lr.ph, label %._crit_edge

.lr.ph:                                           ; preds = %3, %10
  %.01324 = phi i32 [ %11, %10 ], [ 0, %3 ]
  %8 = tail call noundef ptr @_ZNK6icu_777UVector9elementAtEi(ptr noundef nonnull align 8 dereferenceable(40) %4, i32 noundef %.01324)
  %9 = icmp eq ptr %8, %1
  br i1 %9, label %14, label %10

10:                                               ; preds = %.lr.ph
  %11 = add nuw nsw i32 %.01324, 1
  %12 = load i32, ptr %5, align 8, !tbaa !38
  %13 = icmp slt i32 %11, %12
  br i1 %13, label %.lr.ph, label %._crit_edge, !llvm.loop !75

14:                                               ; preds = %.lr.ph
  %15 = getelementptr inbounds nuw i8, ptr %0, i64 96
  %16 = load ptr, ptr %15, align 8, !tbaa !66
  %17 = getelementptr inbounds nuw i8, ptr %16, i64 1162
  %18 = load i16, ptr %17, align 2, !tbaa !31
  %19 = trunc i32 %.01324 to i16
  %20 = add i16 %18, %19
  br label %44

._crit_edge:                                      ; preds = %10, %3
  %21 = getelementptr inbounds nuw i8, ptr %0, i64 424
  %22 = load i16, ptr %21, align 8, !tbaa !76
  %23 = getelementptr inbounds nuw i8, ptr %0, i64 426
  %24 = load i16, ptr %23, align 2, !tbaa !77
  %.not = icmp ult i16 %22, %24
  br i1 %.not, label %32, label %25

25:                                               ; preds = %._crit_edge
  %26 = icmp eq ptr %1, null
  br i1 %26, label %31, label %27

27:                                               ; preds = %25
  %28 = load ptr, ptr %1, align 8, !tbaa !15
  %29 = getelementptr inbounds nuw i8, ptr %28, i64 8
  %30 = load ptr, ptr %29, align 8
  tail call void %30(ptr noundef nonnull align 8 dereferenceable(8) %1) #18
  br label %31

31:                                               ; preds = %27, %25
  store i32 65565, ptr %2, align 4, !tbaa !13
  br label %44

32:                                               ; preds = %._crit_edge
  tail call void @_ZN6icu_777UVector10addElementEPvR10UErrorCode(ptr noundef nonnull align 8 dereferenceable(40) %4, ptr noundef %1, ptr noundef nonnull align 4 dereferenceable(4) %2)
  %33 = load i32, ptr %2, align 4, !tbaa !13
  %34 = icmp slt i32 %33, 1
  br i1 %34, label %41, label %35

35:                                               ; preds = %32
  %36 = icmp eq ptr %1, null
  br i1 %36, label %44, label %37

37:                                               ; preds = %35
  %38 = load ptr, ptr %1, align 8, !tbaa !15
  %39 = getelementptr inbounds nuw i8, ptr %38, i64 8
  %40 = load ptr, ptr %39, align 8
  tail call void %40(ptr noundef nonnull align 8 dereferenceable(8) %1) #18
  br label %44

41:                                               ; preds = %32
  %42 = load i16, ptr %21, align 8, !tbaa !76
  %43 = add i16 %42, 1
  store i16 %43, ptr %21, align 8, !tbaa !76
  br label %44

44:                                               ; preds = %14, %35, %37, %41, %31
  %.1 = phi i16 [ %20, %14 ], [ 0, %31 ], [ %42, %41 ], [ 0, %37 ], [ 0, %35 ]
  ret i16 %.1
}